; Function Attrs: nounwind uwtable
define noalias nonnull ptr @l_Lean_RBNode_mapM___rarg___lambda__1___boxed(ptr noundef %0, ptr noundef %1, ptr noundef %2, ptr noundef %3, ptr noundef %4) #1 {
  %6 = ptrtoint ptr %0 to i64
  %7 = and i64 %6, 1
  %.not = icmp eq i64 %7, 0
  br i1 %.not, label %8, label %lean_dec.exit

8:                                                ; preds = %5
  %9 = load i32, ptr %0, align 4, !tbaa !4
  %10 = icmp sgt i32 %9, 1
  br i1 %10, label %11, label %13, !prof !9

11:                                               ; preds = %8
  %12 = add nsw i32 %9, -1
  store i32 %12, ptr %0, align 4, !tbaa !4
  br label %lean_dec.exit

13:                                               ; preds = %8
  %.not.i = icmp eq i32 %9, 0
  br i1 %.not.i, label %lean_dec.exit, label %14

14:                                               ; preds = %13
  tail call void @lean_dec_ref_cold(ptr noundef nonnull %0) #9
  br label %lean_dec.exit

lean_dec.exit:                                    ; preds = %14, %13, %11, %5
  tail call void @lean_inc_heartbeat() #9
  %15 = tail call noalias ptr @mi_malloc_small(i64 noundef 48) #9
  %16 = icmp eq ptr %15, null
  br i1 %16, label %17, label %l_Lean_RBNode_mapM___rarg___lambda__1.exit

17:                                               ; preds = %lean_dec.exit
  tail call void @lean_internal_panic_out_of_memory() #10
  unreachable

l_Lean_RBNode_mapM___rarg___lambda__1.exit:       ; preds = %lean_dec.exit
  %18 = lshr i64 %6, 1
  %19 = trunc i64 %18 to i8
  %20 = getelementptr inbounds nuw i8, ptr %15, i64 4
  %21 = getelementptr inbounds nuw i8, ptr %15, i64 40
  store i64 0, ptr %21, align 8, !tbaa !16
  store i32 1, ptr %15, align 4, !tbaa !4
  store i32 17039408, ptr %20, align 4
  %22 = getelementptr inbounds nuw i8, ptr %15, i64 8
  store ptr %2, ptr %22, align 8, !tbaa !10
  %23 = getelementptr inbounds nuw i8, ptr %15, i64 16
  store ptr %1, ptr %23, align 8, !tbaa !10
  %24 = getelementptr inbounds nuw i8, ptr %15, i64 24
  store ptr %3, ptr %24, align 8, !tbaa !10
  %25 = getelementptr inbounds nuw i8, ptr %15, i64 32
  store ptr %4, ptr %25, align 8, !tbaa !10
  store i8 %19, ptr %21, align 1, !tbaa !18
  ret ptr %15
}